; Function Attrs: mustprogress nounwind willreturn uwtable
define internal fastcc range(i32 -11, 1) i32 @ops_resize(ptr noundef captures(none) %0, i32 noundef %1) unnamed_addr #10 {
  %3 = getelementptr inbounds nuw i8, ptr %0, i64 28
  %4 = load i32, ptr %3, align 4, !tbaa !30
  %5 = icmp eq i32 %1, %4
  br i1 %5, label %30, label %6

6:                                                ; preds = %2
  %7 = icmp slt i32 %1, 1
  br i1 %7, label %30, label %8

8:                                                ; preds = %6
  %9 = zext nneg i32 %1 to i64
  %10 = mul nuw nsw i64 %9, 24
  %11 = load ptr, ptr %0, align 8, !tbaa !17
  %12 = tail call ptr @realloc(ptr noundef %11, i64 noundef %10) #23
  %13 = icmp eq ptr %12, null
  br i1 %13, label %30, label %14

14:                                               ; preds = %8
  store ptr %12, ptr %0, align 8, !tbaa !17
  %15 = shl nuw nsw i64 %9, 2
  %16 = getelementptr inbounds nuw i8, ptr %0, i64 8
  %17 = load ptr, ptr %16, align 8, !tbaa !19
  %18 = tail call ptr @realloc(ptr noundef %17, i64 noundef %15) #23
  %19 = icmp eq ptr %18, null
  br i1 %19, label %30, label %20

20:                                               ; preds = %14
  store ptr %18, ptr %16, align 8, !tbaa !19
  store i32 %1, ptr %3, align 4, !tbaa !30
  %21 = getelementptr inbounds nuw i8, ptr %0, i64 24
  %22 = load i32, ptr %21, align 8, !tbaa !18
  %23 = icmp eq i32 %22, 0
  br i1 %23, label %.sink.split, label %24

24:                                               ; preds = %20
  %25 = load ptr, ptr %0, align 8, !tbaa !17
  %26 = add i32 %22, -1
  %27 = zext i32 %26 to i64
  %28 = getelementptr inbounds nuw %struct.Operation, ptr %25, i64 %27
  br label %.sink.split

.sink.split:                                      ; preds = %20, %24
  %.sink = phi ptr [ %28, %24 ], [ null, %20 ]
  %29 = getelementptr inbounds nuw i8, ptr %0, i64 16
  store ptr %.sink, ptr %29, align 8, !tbaa !31
  br label %30

30:                                               ; preds = %.sink.split, %14, %8, %6, %2
  %.0 = phi i32 [ 0, %2 ], [ -11, %6 ], [ -5, %8 ], [ -5, %14 ], [ 0, %.sink.split ]
  ret i32 %.0
}